target datalayout = "e-m:e-p270:32:32-p271:32:32-p272:64:64-i64:64-i128:128-f80:128-n8:16:32:64-S128"
target triple = "x86_64-pc-linux-gnu"

%struct.event_signal_map = type { ptr, i32 }

; Function Attrs: nounwind uwtable
define hidden void @evmap_signal_clear_(ptr noundef %0) #0 {
  %2 = alloca ptr, align 8
  %3 = alloca i32, align 4
  store ptr %0, ptr %2, align 8
  %4 = load ptr, ptr %2, align 8
  %5 = getelementptr inbounds nuw %struct.event_signal_map, ptr %4, i32 0, i32 0
  %6 = load ptr, ptr %5, align 8
  %7 = icmp ne ptr %6, null
  br i1 %7, label %8, label %42

8:                                                ; preds = %1
  call void @llvm.lifetime.start.p0(i64 4, ptr %3) #6
  store i32 0, ptr %3, align 4
  br label %9

9:                                                ; preds = %33, %8
  %10 = load i32, ptr %3, align 4
  %11 = load ptr, ptr %2, align 8
  %12 = getelementptr inbounds nuw %struct.event_signal_map, ptr %11, i32 0, i32 1
  %13 = load i32, ptr %12, align 8
  %14 = icmp slt i32 %10, %13
  br i1 %14, label %15, label %36

15:                                               ; preds = %9
  %16 = load ptr, ptr %2, align 8
  %17 = getelementptr inbounds nuw %struct.event_signal_map, ptr %16, i32 0, i32 0
  %18 = load ptr, ptr %17, align 8
  %19 = load i32, ptr %3, align 4
  %20 = sext i32 %19 to i64
  %21 = getelementptr inbounds ptr, ptr %18, i64 %20
  %22 = load ptr, ptr %21, align 8
  %23 = icmp ne ptr %22, null
  br i1 %23, label %24, label %32

24:                                               ; preds = %15
  %25 = load ptr, ptr %2, align 8
  %26 = getelementptr inbounds nuw %struct.event_signal_map, ptr %25, i32 0, i32 0
  %27 = load ptr, ptr %26, align 8
  %28 = load i32, ptr %3, align 4
  %29 = sext i32 %28 to i64
  %30 = getelementptr inbounds ptr, ptr %27, i64 %29
  %31 = load ptr, ptr %30, align 8
  call void @event_mm_free_(ptr noundef %31)
  br label %32

32:                                               ; preds = %24, %15
  br label %33

33:                                               ; preds = %32
  %34 = load i32, ptr %3, align 4
  %35 = add nsw i32 %34, 1
  store i32 %35, ptr %3, align 4
  br label %9, !llvm.loop !3

36:                                               ; preds = %9
  %37 = load ptr, ptr %2, align 8
  %38 = getelementptr inbounds nuw %struct.event_signal_map, ptr %37, i32 0, i32 0
  %39 = load ptr, ptr %38, align 8
  call void @event_mm_free_(ptr noundef %39)
  %40 = load ptr, ptr %2, align 8
  %41 = getelementptr inbounds nuw %struct.event_signal_map, ptr %40, i32 0, i32 0
  store ptr null, ptr %41, align 8
  call void @llvm.lifetime.end.p0(i64 4, ptr %3) #6
  br label %42

42:                                               ; preds = %36, %1
  %43 = load ptr, ptr %2, align 8
  %44 = getelementptr inbounds nuw %struct.event_signal_map, ptr %43, i32 0, i32 1
  store i32 0, ptr %44, align 8
  ret void
}