; Function Attrs: nounwind uwtable
define hidden void @evmap_signal_clear_(ptr noundef captures(none) %0) local_unnamed_addr #1 {
  %2 = load ptr, ptr %0, align 8
  %.not = icmp eq ptr %2, null
  br i1 %.not, label %16, label %.preheader

.preheader:                                       ; preds = %1
  %3 = getelementptr inbounds nuw i8, ptr %0, i64 8
  %4 = load i32, ptr %3, align 8
  %5 = icmp sgt i32 %4, 0
  br i1 %5, label %.lr.ph, label %._crit_edge

.lr.ph:                                           ; preds = %.preheader, %11
  %6 = phi i32 [ %12, %11 ], [ %4, %.preheader ]
  %indvars.iv = phi i64 [ %indvars.iv.next, %11 ], [ 0, %.preheader ]
  %7 = load ptr, ptr %0, align 8
  %8 = getelementptr inbounds nuw ptr, ptr %7, i64 %indvars.iv
  %9 = load ptr, ptr %8, align 8
  %.not11 = icmp eq ptr %9, null
  br i1 %.not11, label %11, label %10

10:                                               ; preds = %.lr.ph
  tail call void @event_mm_free_(ptr noundef nonnull %9) #7
  %.pre = load i32, ptr %3, align 8
  br label %11

11:                                               ; preds = %.lr.ph, %10
  %12 = phi i32 [ %6, %.lr.ph ], [ %.pre, %10 ]
  %indvars.iv.next = add nuw nsw i64 %indvars.iv, 1
  %13 = sext i32 %12 to i64
  %14 = icmp slt i64 %indvars.iv.next, %13
  br i1 %14, label %.lr.ph, label %._crit_edge.loopexit, !llvm.loop !3

._crit_edge.loopexit:                             ; preds = %11
  %.pre14 = load ptr, ptr %0, align 8
  br label %._crit_edge

._crit_edge:                                      ; preds = %._crit_edge.loopexit, %.preheader
  %15 = phi ptr [ %.pre14, %._crit_edge.loopexit ], [ %2, %.preheader ]
  tail call void @event_mm_free_(ptr noundef %15) #7
  store ptr null, ptr %0, align 8
  br label %16

16:                                               ; preds = %._crit_edge, %1
  %17 = getelementptr inbounds nuw i8, ptr %0, i64 8
  store i32 0, ptr %17, align 8
  ret void
}